target datalayout = "e-m:e-p270:32:32-p271:32:32-p272:64:64-i64:64-i128:128-f80:128-n8:16:32:64-S128"
target triple = "x86_64-pc-linux-gnu"

%struct.VkComponentMapping = type { i32, i32, i32, i32 }
%struct.SDL_AtomicInt = type { i32 }
%struct.VulkanRenderer = type { ptr, ptr, %struct.VkPhysicalDeviceProperties2, %struct.VkPhysicalDeviceDriverProperties, %struct.VkPhysicalDeviceFeatures, ptr, i8, i8, i8, i8, i8, i8, i32, i32, %struct.VulkanExtensions, i8, i8, i8, i8, ptr, %struct.VkPhysicalDeviceMemoryProperties, i8, ptr, i32, i32, i32, ptr, ptr, i32, i32, %struct.VulkanFencePool, ptr, ptr, ptr, ptr, ptr, ptr, ptr, i32, i32, ptr, i32, i32, %struct.SDL_AtomicInt, i32, ptr, i32, i32, ptr, i32, i32, ptr, i32, i32, ptr, i32, i32, ptr, i32, i32, ptr, i32, i32, ptr, i32, i32, ptr, ptr, ptr, ptr, ptr, ptr, ptr, ptr, ptr, ptr, ptr, i8, ptr, i32, i32, ptr, ptr, ptr, ptr, ptr, ptr, ptr, ptr, ptr, ptr, ptr, ptr, ptr, ptr, ptr, ptr, ptr, ptr, ptr, ptr, ptr, ptr, ptr, ptr, ptr, ptr, ptr, ptr, ptr, ptr, ptr, ptr, ptr, ptr, ptr, ptr, ptr, ptr, ptr, ptr, ptr, ptr, ptr, ptr, ptr, ptr, ptr, ptr, ptr, ptr, ptr, ptr, ptr, ptr, ptr, ptr, ptr, ptr, ptr, ptr, ptr, ptr, ptr, ptr, ptr, ptr, ptr, ptr, ptr, ptr, ptr, ptr, ptr, ptr, ptr, ptr, ptr, ptr, ptr, ptr, ptr, ptr, ptr, ptr, ptr, ptr, ptr, ptr, ptr, ptr, ptr, ptr, ptr, ptr, ptr, ptr, ptr, ptr, ptr, ptr, ptr, ptr, ptr, ptr, ptr, ptr, ptr, ptr, ptr, ptr }
%struct.VkPhysicalDeviceProperties2 = type { i32, ptr, %struct.VkPhysicalDeviceProperties }
%struct.VkPhysicalDeviceProperties = type { i32, i32, i32, i32, i32, [256 x i8], [16 x i8], %struct.VkPhysicalDeviceLimits, %struct.VkPhysicalDeviceSparseProperties }
%struct.VkPhysicalDeviceLimits = type { i32, i32, i32, i32, i32, i32, i32, i32, i32, i32, i32, i64, i64, i32, i32, i32, i32, i32, i32, i32, i32, i32, i32, i32, i32, i32, i32, i32, i32, i32, i32, i32, i32, i32, i32, i32, i32, i32, i32, i32, i32, i32, i32, i32, i32, i32, i32, i32, i32, i32, i32, i32, [3 x i32], i32, [3 x i32], i32, i32, i32, i32, i32, float, float, i32, [2 x i32], [2 x float], i32, i64, i64, i64, i64, i32, i32, i32, i32, float, float, i32, i32, i32, i32, i32, i32, i32, i32, i32, i32, i32, i32, i32, i32, i32, i32, float, i32, i32, i32, i32, [2 x float], [2 x float], float, float, i32, i32, i64, i64, i64 }
%struct.VkPhysicalDeviceSparseProperties = type { i32, i32, i32, i32, i32 }
%struct.VkPhysicalDeviceDriverProperties = type { i32, ptr, i32, [256 x i8], [256 x i8], %struct.VkConformanceVersion }
%struct.VkConformanceVersion = type { i8, i8, i8, i8 }
%struct.VkPhysicalDeviceFeatures = type { i32, i32, i32, i32, i32, i32, i32, i32, i32, i32, i32, i32, i32, i32, i32, i32, i32, i32, i32, i32, i32, i32, i32, i32, i32, i32, i32, i32, i32, i32, i32, i32, i32, i32, i32, i32, i32, i32, i32, i32, i32, i32, i32, i32, i32, i32, i32, i32, i32, i32, i32, i32, i32, i32, i32 }
%struct.VulkanExtensions = type { i8, i8, i8, i8, i8 }
%struct.VkPhysicalDeviceMemoryProperties = type { i32, [32 x %struct.VkMemoryType], i32, [16 x %struct.VkMemoryHeap] }
%struct.VkMemoryType = type { i32, i32 }
%struct.VkMemoryHeap = type { i64, i32 }
%struct.VulkanFencePool = type { ptr, ptr, i32, i32 }
%struct.WindowData = type { ptr, i32, i32, i8, i32, i32, ptr, ptr, i32, i32, %struct.VkComponentMapping, i8, ptr, i32, i32, i32, [3 x ptr], ptr, [3 x ptr], i32 }
%struct.VulkanFenceHandle = type { ptr, %struct.SDL_AtomicInt }

; Function Attrs: nounwind uwtable
define internal void @VULKAN_INTERNAL_ReturnFenceToPool(ptr noundef %0, ptr noundef %1) #0 {
  %3 = alloca ptr, align 8
  %4 = alloca ptr, align 8
  store ptr %0, ptr %3, align 8
  store ptr %1, ptr %4, align 8
  %5 = load ptr, ptr %3, align 8
  %6 = getelementptr inbounds nuw %struct.VulkanRenderer, ptr %5, i32 0, i32 30
  %7 = getelementptr inbounds nuw %struct.VulkanFencePool, ptr %6, i32 0, i32 0
  %8 = load ptr, ptr %7, align 8
  call void @SDL_LockMutex_REAL(ptr noundef %8)
  br label %9

9:                                                ; preds = %2
  %10 = load ptr, ptr %3, align 8
  %11 = getelementptr inbounds nuw %struct.VulkanRenderer, ptr %10, i32 0, i32 30
  %12 = getelementptr inbounds nuw %struct.VulkanFencePool, ptr %11, i32 0, i32 2
  %13 = load i32, ptr %12, align 8
  %14 = add i32 %13, 1
  %15 = load ptr, ptr %3, align 8
  %16 = getelementptr inbounds nuw %struct.VulkanRenderer, ptr %15, i32 0, i32 30
  %17 = getelementptr inbounds nuw %struct.VulkanFencePool, ptr %16, i32 0, i32 3
  %18 = load i32, ptr %17, align 4
  %19 = icmp uge i32 %14, %18
  br i1 %19, label %20, label %43

20:                                               ; preds = %9
  %21 = load ptr, ptr %3, align 8
  %22 = getelementptr inbounds nuw %struct.VulkanRenderer, ptr %21, i32 0, i32 30
  %23 = getelementptr inbounds nuw %struct.VulkanFencePool, ptr %22, i32 0, i32 3
  %24 = load i32, ptr %23, align 4
  %25 = mul i32 %24, 2
  %26 = load ptr, ptr %3, align 8
  %27 = getelementptr inbounds nuw %struct.VulkanRenderer, ptr %26, i32 0, i32 30
  %28 = getelementptr inbounds nuw %struct.VulkanFencePool, ptr %27, i32 0, i32 3
  store i32 %25, ptr %28, align 4
  %29 = load ptr, ptr %3, align 8
  %30 = getelementptr inbounds nuw %struct.VulkanRenderer, ptr %29, i32 0, i32 30
  %31 = getelementptr inbounds nuw %struct.VulkanFencePool, ptr %30, i32 0, i32 1
  %32 = load ptr, ptr %31, align 8
  %33 = load ptr, ptr %3, align 8
  %34 = getelementptr inbounds nuw %struct.VulkanRenderer, ptr %33, i32 0, i32 30
  %35 = getelementptr inbounds nuw %struct.VulkanFencePool, ptr %34, i32 0, i32 3
  %36 = load i32, ptr %35, align 4
  %37 = zext i32 %36 to i64
  %38 = mul i64 8, %37
  %39 = call ptr @SDL_realloc_REAL(ptr noundef %32, i64 noundef %38) #11
  %40 = load ptr, ptr %3, align 8
  %41 = getelementptr inbounds nuw %struct.VulkanRenderer, ptr %40, i32 0, i32 30
  %42 = getelementptr inbounds nuw %struct.VulkanFencePool, ptr %41, i32 0, i32 1
  store ptr %39, ptr %42, align 8
  br label %43

43:                                               ; preds = %20, %9
  br label %44

44:                                               ; preds = %43
  %45 = load ptr, ptr %4, align 8
  %46 = load ptr, ptr %3, align 8
  %47 = getelementptr inbounds nuw %struct.VulkanRenderer, ptr %46, i32 0, i32 30
  %48 = getelementptr inbounds nuw %struct.VulkanFencePool, ptr %47, i32 0, i32 1
  %49 = load ptr, ptr %48, align 8
  %50 = load ptr, ptr %3, align 8
  %51 = getelementptr inbounds nuw %struct.VulkanRenderer, ptr %50, i32 0, i32 30
  %52 = getelementptr inbounds nuw %struct.VulkanFencePool, ptr %51, i32 0, i32 2
  %53 = load i32, ptr %52, align 8
  %54 = zext i32 %53 to i64
  %55 = getelementptr inbounds nuw ptr, ptr %49, i64 %54
  store ptr %45, ptr %55, align 8
  %56 = load ptr, ptr %3, align 8
  %57 = getelementptr inbounds nuw %struct.VulkanRenderer, ptr %56, i32 0, i32 30
  %58 = getelementptr inbounds nuw %struct.VulkanFencePool, ptr %57, i32 0, i32 2
  %59 = load i32, ptr %58, align 8
  %60 = add i32 %59, 1
  store i32 %60, ptr %58, align 8
  %61 = load ptr, ptr %3, align 8
  %62 = getelementptr inbounds nuw %struct.VulkanRenderer, ptr %61, i32 0, i32 30
  %63 = getelementptr inbounds nuw %struct.VulkanFencePool, ptr %62, i32 0, i32 0
  %64 = load ptr, ptr %63, align 8
  call void @SDL_UnlockMutex_REAL(ptr noundef %64)
  ret void
}

; Function Attrs: nounwind uwtable
define internal void @VULKAN_ReleaseFence(ptr noundef %0, ptr noundef %1) #0 {
  %3 = alloca ptr, align 8
  %4 = alloca ptr, align 8
  %5 = alloca ptr, align 8
  store ptr %0, ptr %3, align 8
  store ptr %1, ptr %4, align 8
  call void @llvm.lifetime.start.p0(i64 8, ptr %5) #9
  %6 = load ptr, ptr %4, align 8
  store ptr %6, ptr %5, align 8
  %7 = load ptr, ptr %5, align 8
  %8 = getelementptr inbounds nuw %struct.VulkanFenceHandle, ptr %7, i32 0, i32 1
  %9 = call i32 @SDL_AddAtomicInt_REAL(ptr noundef %8, i32 noundef -1)
  %10 = icmp eq i32 %9, 1
  br i1 %10, label %11, label %14

11:                                               ; preds = %2
  %12 = load ptr, ptr %3, align 8
  %13 = load ptr, ptr %5, align 8
  call void @VULKAN_INTERNAL_ReturnFenceToPool(ptr noundef %12, ptr noundef %13)
  br label %14

14:                                               ; preds = %11, %2
  call void @llvm.lifetime.end.p0(i64 8, ptr %5) #9
  ret void
}

; Function Attrs: nounwind uwtable
define internal i32 @VULKAN_INTERNAL_RecreateSwapchain(ptr noundef %0, ptr noundef %1) #0 {
  %3 = alloca i32, align 4
  %4 = alloca ptr, align 8
  %5 = alloca ptr, align 8
  %6 = alloca i32, align 4
  %7 = alloca i32, align 4
  store ptr %0, ptr %4, align 8
  store ptr %1, ptr %5, align 8
  call void @llvm.lifetime.start.p0(i64 4, ptr %6) #9
  %8 = load ptr, ptr %4, align 8
  %9 = call zeroext i1 @VULKAN_Wait(ptr noundef %8)
  br i1 %9, label %11, label %10

10:                                               ; preds = %2
  store i32 0, ptr %3, align 4
  store i32 1, ptr %7, align 4
  br label %46

11:                                               ; preds = %2
  store i32 0, ptr %6, align 4
  br label %12

12:                                               ; preds = %37, %11
  %13 = load i32, ptr %6, align 4
  %14 = icmp ult i32 %13, 3
  br i1 %14, label %15, label %40

15:                                               ; preds = %12
  %16 = load ptr, ptr %5, align 8
  %17 = getelementptr inbounds nuw %struct.WindowData, ptr %16, i32 0, i32 18
  %18 = load i32, ptr %6, align 4
  %19 = zext i32 %18 to i64
  %20 = getelementptr inbounds nuw [3 x ptr], ptr %17, i64 0, i64 %19
  %21 = load ptr, ptr %20, align 8
  %22 = icmp ne ptr %21, null
  br i1 %22, label %23, label %36

23:                                               ; preds = %15
  %24 = load ptr, ptr %4, align 8
  %25 = load ptr, ptr %5, align 8
  %26 = getelementptr inbounds nuw %struct.WindowData, ptr %25, i32 0, i32 18
  %27 = load i32, ptr %6, align 4
  %28 = zext i32 %27 to i64
  %29 = getelementptr inbounds nuw [3 x ptr], ptr %26, i64 0, i64 %28
  %30 = load ptr, ptr %29, align 8
  call void @VULKAN_ReleaseFence(ptr noundef %24, ptr noundef %30)
  %31 = load ptr, ptr %5, align 8
  %32 = getelementptr inbounds nuw %struct.WindowData, ptr %31, i32 0, i32 18
  %33 = load i32, ptr %6, align 4
  %34 = zext i32 %33 to i64
  %35 = getelementptr inbounds nuw [3 x ptr], ptr %32, i64 0, i64 %34
  store ptr null, ptr %35, align 8
  br label %36

36:                                               ; preds = %23, %15
  br label %37

37:                                               ; preds = %36
  %38 = load i32, ptr %6, align 4
  %39 = add i32 %38, 1
  store i32 %39, ptr %6, align 4
  br label %12, !llvm.loop !163

40:                                               ; preds = %12
  %41 = load ptr, ptr %4, align 8
  %42 = load ptr, ptr %5, align 8
  call void @VULKAN_INTERNAL_DestroySwapchain(ptr noundef %41, ptr noundef %42)
  %43 = load ptr, ptr %4, align 8
  %44 = load ptr, ptr %5, align 8
  %45 = call i32 @VULKAN_INTERNAL_CreateSwapchain(ptr noundef %43, ptr noundef %44)
  store i32 %45, ptr %3, align 4
  store i32 1, ptr %7, align 4
  br label %46

46:                                               ; preds = %40, %10
  call void @llvm.lifetime.end.p0(i64 4, ptr %6) #9
  %47 = load i32, ptr %3, align 4
  ret i32 %47
}