; Function Attrs: nounwind uwtable
define internal fastcc range(i32 0, 3) i32 @VULKAN_INTERNAL_RecreateSwapchain(ptr noundef %0, ptr noundef %1) unnamed_addr #0 {
  %3 = tail call zeroext i1 @VULKAN_Wait(ptr noundef %0)
  br i1 %3, label %.preheader, label %37

.preheader:                                       ; preds = %2
  %4 = getelementptr inbounds nuw i8, ptr %1, i64 136
  %5 = getelementptr inbounds nuw i8, ptr %0, i64 2240
  %6 = getelementptr inbounds nuw i8, ptr %0, i64 2256
  %7 = getelementptr inbounds nuw i8, ptr %0, i64 2260
  %8 = getelementptr inbounds nuw i8, ptr %0, i64 2248
  br label %9

9:                                                ; preds = %.preheader, %34
  %indvars.iv = phi i64 [ 0, %.preheader ], [ %indvars.iv.next, %34 ]
  %10 = getelementptr inbounds nuw [3 x ptr], ptr %4, i64 0, i64 %indvars.iv
  %11 = load ptr, ptr %10, align 8
  %.not = icmp eq ptr %11, null
  br i1 %.not, label %34, label %12

12:                                               ; preds = %9
  %13 = getelementptr inbounds nuw i8, ptr %11, i64 8
  %14 = tail call i32 @SDL_AddAtomicInt_REAL(ptr noundef nonnull %13, i32 noundef -1) #13
  %15 = icmp eq i32 %14, 1
  br i1 %15, label %16, label %VULKAN_ReleaseFence.exit

16:                                               ; preds = %12
  %17 = load ptr, ptr %5, align 8
  tail call void @SDL_LockMutex_REAL(ptr noundef %17) #13
  %18 = load i32, ptr %6, align 8
  %19 = add i32 %18, 1
  %20 = load i32, ptr %7, align 4
  %.not.i.i = icmp ult i32 %19, %20
  br i1 %.not.i.i, label %._crit_edge.i.i, label %21

._crit_edge.i.i:                                  ; preds = %16
  %.pre.i.i = load ptr, ptr %8, align 8
  br label %VULKAN_INTERNAL_ReturnFenceToPool.exit.i

21:                                               ; preds = %16
  %22 = shl i32 %20, 1
  store i32 %22, ptr %7, align 4
  %23 = load ptr, ptr %8, align 8
  %24 = zext i32 %22 to i64
  %25 = shl nuw nsw i64 %24, 3
  %26 = tail call ptr @SDL_realloc_REAL(ptr noundef %23, i64 noundef %25) #16
  store ptr %26, ptr %8, align 8
  %.pre13.i.i = load i32, ptr %6, align 8
  br label %VULKAN_INTERNAL_ReturnFenceToPool.exit.i

VULKAN_INTERNAL_ReturnFenceToPool.exit.i:         ; preds = %21, %._crit_edge.i.i
  %27 = phi i32 [ %18, %._crit_edge.i.i ], [ %.pre13.i.i, %21 ]
  %28 = phi ptr [ %.pre.i.i, %._crit_edge.i.i ], [ %26, %21 ]
  %29 = zext i32 %27 to i64
  %30 = getelementptr inbounds nuw ptr, ptr %28, i64 %29
  store ptr %11, ptr %30, align 8
  %31 = load i32, ptr %6, align 8
  %32 = add i32 %31, 1
  store i32 %32, ptr %6, align 8
  %33 = load ptr, ptr %5, align 8
  tail call void @SDL_UnlockMutex_REAL(ptr noundef %33) #13
  br label %VULKAN_ReleaseFence.exit

VULKAN_ReleaseFence.exit:                         ; preds = %12, %VULKAN_INTERNAL_ReturnFenceToPool.exit.i
  store ptr null, ptr %10, align 8
  br label %34

34:                                               ; preds = %9, %VULKAN_ReleaseFence.exit
  %indvars.iv.next = add nuw nsw i64 %indvars.iv, 1
  %exitcond.not = icmp eq i64 %indvars.iv.next, 3
  br i1 %exitcond.not, label %35, label %9, !llvm.loop !164

35:                                               ; preds = %34
  tail call fastcc void @VULKAN_INTERNAL_DestroySwapchain(ptr noundef %0, ptr noundef nonnull %1)
  %36 = tail call fastcc i32 @VULKAN_INTERNAL_CreateSwapchain(ptr noundef %0, ptr noundef nonnull %1)
  br label %37

37:                                               ; preds = %2, %35
  %.014 = phi i32 [ %36, %35 ], [ 0, %2 ]
  ret i32 %.014
}